target datalayout = "e-m:e-p270:32:32-p271:32:32-p272:64:64-i64:64-i128:128-f80:128-n8:16:32:64-S128"
target triple = "x86_64-pc-linux-gnu"

%struct.Vec_Int_t_ = type { i32, i32, ptr }
%struct.Abc_Obj_t_ = type { ptr, ptr, i32, i32, %struct.Vec_Int_t_, %struct.Vec_Int_t_, %union.anon, %union.anon.0 }
%union.anon = type { ptr }
%union.anon.0 = type { ptr }

@.str.66 = private unnamed_addr constant [2 x i8] c"L\00", align 1

; Function Attrs: inlinehint nounwind uwtable
define internal void @Abc_LatchSetInitDc(ptr noundef %0) #6 {
  %2 = alloca ptr, align 8
  store ptr %0, ptr %2, align 8, !tbaa !58
  %3 = load ptr, ptr %2, align 8, !tbaa !58
  %4 = getelementptr inbounds nuw %struct.Abc_Obj_t_, ptr %3, i32 0, i32 6
  store ptr inttoptr (i64 3 to ptr), ptr %4, align 8, !tbaa !66
  ret void
}

; Function Attrs: inlinehint nounwind uwtable
define internal ptr @Abc_NtkCreateBo(ptr noundef %0) #6 {
  %2 = alloca ptr, align 8
  store ptr %0, ptr %2, align 8, !tbaa !39
  %3 = load ptr, ptr %2, align 8, !tbaa !39
  %4 = call ptr @Abc_NtkCreateObj(ptr noundef %3, i32 noundef 5)
  ret ptr %4
}

; Function Attrs: inlinehint nounwind uwtable
define internal ptr @Abc_NtkCreateLatch(ptr noundef %0) #6 {
  %2 = alloca ptr, align 8
  store ptr %0, ptr %2, align 8, !tbaa !39
  %3 = load ptr, ptr %2, align 8, !tbaa !39
  %4 = call ptr @Abc_NtkCreateObj(ptr noundef %3, i32 noundef 8)
  ret ptr %4
}

; Function Attrs: inlinehint nounwind uwtable
define internal ptr @Abc_NtkCreateBi(ptr noundef %0) #6 {
  %2 = alloca ptr, align 8
  store ptr %0, ptr %2, align 8, !tbaa !39
  %3 = load ptr, ptr %2, align 8, !tbaa !39
  %4 = call ptr @Abc_NtkCreateObj(ptr noundef %3, i32 noundef 4)
  ret ptr %4
}

; Function Attrs: nounwind uwtable
define internal ptr @Ver_ParseCreateLatch(ptr noundef %0, ptr noundef %1, ptr noundef %2) #0 {
  %4 = alloca ptr, align 8
  %5 = alloca ptr, align 8
  %6 = alloca ptr, align 8
  %7 = alloca ptr, align 8
  %8 = alloca ptr, align 8
  store ptr %0, ptr %4, align 8, !tbaa !39
  store ptr %1, ptr %5, align 8, !tbaa !58
  store ptr %2, ptr %6, align 8, !tbaa !58
  call void @llvm.lifetime.start.p0(i64 8, ptr %7) #10
  call void @llvm.lifetime.start.p0(i64 8, ptr %8) #10
  %9 = load ptr, ptr %4, align 8, !tbaa !39
  %10 = call ptr @Abc_NtkCreateBi(ptr noundef %9)
  store ptr %10, ptr %8, align 8, !tbaa !58
  %11 = load ptr, ptr %8, align 8, !tbaa !58
  %12 = load ptr, ptr %5, align 8, !tbaa !58
  call void @Abc_ObjAddFanin(ptr noundef %11, ptr noundef %12)
  %13 = load ptr, ptr %4, align 8, !tbaa !39
  %14 = call ptr @Abc_NtkCreateLatch(ptr noundef %13)
  store ptr %14, ptr %7, align 8, !tbaa !58
  %15 = load ptr, ptr %7, align 8, !tbaa !58
  %16 = load ptr, ptr %8, align 8, !tbaa !58
  call void @Abc_ObjAddFanin(ptr noundef %15, ptr noundef %16)
  %17 = load ptr, ptr %4, align 8, !tbaa !39
  %18 = call ptr @Abc_NtkCreateBo(ptr noundef %17)
  store ptr %18, ptr %8, align 8, !tbaa !58
  %19 = load ptr, ptr %8, align 8, !tbaa !58
  %20 = load ptr, ptr %7, align 8, !tbaa !58
  call void @Abc_ObjAddFanin(ptr noundef %19, ptr noundef %20)
  %21 = load ptr, ptr %6, align 8, !tbaa !58
  %22 = load ptr, ptr %8, align 8, !tbaa !58
  call void @Abc_ObjAddFanin(ptr noundef %21, ptr noundef %22)
  %23 = load ptr, ptr %7, align 8, !tbaa !58
  %24 = load ptr, ptr %6, align 8, !tbaa !58
  %25 = call ptr @Abc_ObjName(ptr noundef %24)
  %26 = call ptr @Abc_ObjAssignName(ptr noundef %23, ptr noundef %25, ptr noundef @.str.66)
  %27 = load ptr, ptr %7, align 8, !tbaa !58
  call void @Abc_LatchSetInitDc(ptr noundef %27)
  %28 = load ptr, ptr %7, align 8, !tbaa !58
  call void @llvm.lifetime.end.p0(i64 8, ptr %8) #10
  call void @llvm.lifetime.end.p0(i64 8, ptr %7) #10
  ret ptr %28
}