; Function Attrs: nounwind uwtable
define internal fastcc noundef ptr @Ver_ParseCreateLatch(ptr noundef %0, ptr noundef nonnull %1, ptr noundef nonnull %2) unnamed_addr #0 {
  %4 = tail call ptr @Abc_NtkCreateObj(ptr noundef %0, i32 noundef 4) #20
  tail call void @Abc_ObjAddFanin(ptr noundef %4, ptr noundef nonnull %1) #20
  %5 = tail call ptr @Abc_NtkCreateObj(ptr noundef %0, i32 noundef 8) #20
  tail call void @Abc_ObjAddFanin(ptr noundef %5, ptr noundef %4) #20
  %6 = tail call ptr @Abc_NtkCreateObj(ptr noundef %0, i32 noundef 5) #20
  tail call void @Abc_ObjAddFanin(ptr noundef %6, ptr noundef %5) #20
  tail call void @Abc_ObjAddFanin(ptr noundef nonnull %2, ptr noundef %6) #20
  %7 = tail call ptr @Abc_ObjName(ptr noundef nonnull %2) #20
  %8 = tail call ptr @Abc_ObjAssignName(ptr noundef %5, ptr noundef %7, ptr noundef nonnull @.str.66) #20
  %9 = getelementptr inbounds nuw i8, ptr %5, i64 56
  store ptr inttoptr (i64 3 to ptr), ptr %9, align 8, !tbaa !73
  ret ptr %5
}